; Function Attrs: nounwind uwtable
define hidden noundef zeroext i1 @SDL_GetDateTimeLocalePreferences_REAL(ptr noundef %0, ptr noundef %1) local_unnamed_addr #1 {
  %.not = icmp eq ptr %0, null
  br i1 %.not, label %4, label %3

3:                                                ; preds = %2
  store i32 0, ptr %0, align 4
  br label %4

4:                                                ; preds = %3, %2
  %.not7 = icmp eq ptr %1, null
  br i1 %.not7, label %6, label %5

5:                                                ; preds = %4
  store i32 0, ptr %1, align 4
  br label %6

6:                                                ; preds = %5, %4
  tail call void @SDL_GetSystemTimeLocalePreferences(ptr noundef %0, ptr noundef %1) #5
  ret i1 true
}